target datalayout = "e-m:e-p270:32:32-p271:32:32-p272:64:64-i64:64-i128:128-f80:128-n8:16:32:64-S128"
target triple = "x86_64-pc-linux-gnu"

%struct.slurm_conf_t = type { i64, ptr, i16, ptr, ptr, ptr, ptr, ptr, i16, ptr, ptr, ptr, ptr, ptr, ptr, ptr, i16, ptr, ptr, ptr, ptr, i16, ptr, ptr, ptr, i64, ptr, ptr, ptr, ptr, i16, ptr, ptr, i16, i32, ptr, i32, ptr, i32, i32, ptr, ptr, i64, i64, ptr, i16, i16, ptr, i32, i32, ptr, i32, ptr, i32, i16, i16, i16, ptr, i16, i16, ptr, ptr, i32, i16, i16, ptr, i32, i16, ptr, ptr, ptr, ptr, i16, ptr, ptr, ptr, ptr, i32, ptr, ptr, ptr, ptr, i16, i16, ptr, i32, i32, i32, i16, i16, ptr, ptr, i16, ptr, ptr, i32, i32, i32, i32, i32, i64, i32, i32, i16, ptr, ptr, i32, ptr, ptr, ptr, i16, i32, ptr, ptr, i16, ptr, ptr, i32, i16, ptr, ptr, ptr, ptr, i32, i32, i16, i16, i32, ptr, i16, ptr, i32, i32, i32, i32, i32, i32, ptr, i16, ptr, ptr, i32, i16, ptr, i32, i16, i16, ptr, ptr, ptr, i16, ptr, ptr, ptr, ptr, i16, i16, ptr, i16, ptr, i16, ptr, i16, ptr, i16, ptr, ptr, ptr, ptr, i16, ptr, ptr, ptr, i32, ptr, i32, ptr, ptr, i16, ptr, ptr, i32, i16, ptr, ptr, i16, i16, ptr, i16, ptr, ptr, ptr, i32, ptr, i16, i16, ptr, ptr, ptr, ptr, ptr, ptr, ptr, ptr, i16, i32, i16, ptr, ptr, ptr, ptr, i32, ptr, ptr, ptr, i16, ptr, ptr, ptr, i16, ptr, i16, ptr, i16, i16, ptr }
%struct.slurm_msg = type { %struct.sockaddr_storage, ptr, i32, i32, i32, i8, i32, i8, i32, ptr, ptr, i32, ptr, ptr, i16, i8, i16, i16, %struct.forward, ptr, %struct.sockaddr_storage, ptr }
%struct.forward = type { %struct.slurm_node_alias_addrs_t, i16, i16, ptr, i32, i16, i16 }
%struct.slurm_node_alias_addrs_t = type { i64, ptr, ptr, i32, ptr }
%struct.sockaddr_storage = type { i16, [118 x i8], i64 }
%struct.ret_data_info = type { i16, i32, ptr, ptr }
%struct.set_debug_level_msg = type { i32 }

@slurm_conf = external global %struct.slurm_conf_t, align 8

; Function Attrs: nounwind uwtable
define dso_local i32 @slurm_set_slurmd_debug_level(ptr noundef %0, i32 noundef %1) #0 {
  %3 = alloca i32, align 4
  %4 = alloca ptr, align 8
  %5 = alloca i32, align 4
  %6 = alloca %struct.slurm_msg, align 8
  %7 = alloca %struct.slurm_msg, align 8
  %8 = alloca %struct.set_debug_level_msg, align 4
  %9 = alloca ptr, align 8
  %10 = alloca ptr, align 8
  %11 = alloca ptr, align 8
  %12 = alloca i32, align 4
  %13 = alloca i32, align 4
  store ptr %0, ptr %4, align 8
  store i32 %1, ptr %5, align 4
  call void @llvm.lifetime.start.p0(i64 424, ptr %6) #6
  call void @llvm.lifetime.start.p0(i64 424, ptr %7) #6
  call void @llvm.lifetime.start.p0(i64 4, ptr %8) #6
  call void @llvm.lifetime.start.p0(i64 8, ptr %9) #6
  call void @llvm.lifetime.start.p0(i64 8, ptr %10) #6
  call void @llvm.lifetime.start.p0(i64 8, ptr %11) #6
  store ptr null, ptr %11, align 8
  call void @llvm.lifetime.start.p0(i64 4, ptr %12) #6
  store i32 0, ptr %12, align 4
  call void @slurm_msg_t_init(ptr noundef %6)
  call void @slurm_msg_t_init(ptr noundef %7)
  %14 = load i32, ptr getelementptr inbounds nuw (%struct.slurm_conf_t, ptr @slurm_conf, i32 0, i32 175), align 8
  call void @slurm_msg_set_r_uid(ptr noundef %6, i32 noundef %14)
  call void @llvm.memset.p0.i64(ptr align 4 %8, i8 0, i64 4, i1 false)
  %15 = load i32, ptr %5, align 4
  %16 = getelementptr inbounds nuw %struct.set_debug_level_msg, ptr %8, i32 0, i32 0
  store i32 %15, ptr %16, align 4
  %17 = getelementptr inbounds nuw %struct.slurm_msg, ptr %6, i32 0, i32 16
  store i16 1010, ptr %17, align 4
  %18 = getelementptr inbounds nuw %struct.slurm_msg, ptr %6, i32 0, i32 13
  store ptr %8, ptr %18, align 8
  %19 = load ptr, ptr %4, align 8
  %20 = call ptr @slurm_send_recv_msgs(ptr noundef %19, ptr noundef %6, i32 noundef 0)
  store ptr %20, ptr %9, align 8
  %21 = icmp ne ptr %20, null
  br i1 %21, label %23, label %22

22:                                               ; preds = %2
  store i32 -1, ptr %3, align 4
  store i32 1, ptr %13, align 4
  br label %54

23:                                               ; preds = %2
  %24 = load ptr, ptr %9, align 8
  %25 = call ptr @list_iterator_create(ptr noundef %24)
  store ptr %25, ptr %10, align 8
  br label %26

26:                                               ; preds = %42, %23
  %27 = load ptr, ptr %10, align 8
  %28 = call ptr @list_next(ptr noundef %27)
  store ptr %28, ptr %11, align 8
  %29 = icmp ne ptr %28, null
  br i1 %29, label %30, label %43

30:                                               ; preds = %26
  %31 = load ptr, ptr %11, align 8
  %32 = getelementptr inbounds nuw %struct.ret_data_info, ptr %31, i32 0, i32 0
  %33 = load i16, ptr %32, align 8
  %34 = zext i16 %33 to i32
  %35 = load ptr, ptr %11, align 8
  %36 = getelementptr inbounds nuw %struct.ret_data_info, ptr %35, i32 0, i32 3
  %37 = load ptr, ptr %36, align 8
  %38 = call i32 @slurm_get_return_code(i32 noundef %34, ptr noundef %37)
  store i32 %38, ptr %12, align 4
  %39 = load i32, ptr %12, align 4
  %40 = icmp ne i32 %39, 0
  br i1 %40, label %41, label %42

41:                                               ; preds = %30
  br label %43

42:                                               ; preds = %30
  br label %26, !llvm.loop !13

43:                                               ; preds = %41, %26
  %44 = load ptr, ptr %10, align 8
  call void @list_iterator_destroy(ptr noundef %44)
  br label %45

45:                                               ; preds = %43
  %46 = load ptr, ptr %9, align 8
  %47 = icmp ne ptr %46, null
  br i1 %47, label %48, label %50

48:                                               ; preds = %45
  %49 = load ptr, ptr %9, align 8
  call void @list_destroy(ptr noundef %49)
  br label %50

50:                                               ; preds = %48, %45
  store ptr null, ptr %9, align 8
  br label %51

51:                                               ; preds = %50
  br label %52

52:                                               ; preds = %51
  %53 = load i32, ptr %12, align 4
  store i32 %53, ptr %3, align 4
  store i32 1, ptr %13, align 4
  br label %54

54:                                               ; preds = %52, %22
  call void @llvm.lifetime.end.p0(i64 4, ptr %12) #6
  call void @llvm.lifetime.end.p0(i64 8, ptr %11) #6
  call void @llvm.lifetime.end.p0(i64 8, ptr %10) #6
  call void @llvm.lifetime.end.p0(i64 8, ptr %9) #6
  call void @llvm.lifetime.end.p0(i64 4, ptr %8) #6
  call void @llvm.lifetime.end.p0(i64 424, ptr %7) #6
  call void @llvm.lifetime.end.p0(i64 424, ptr %6) #6
  %55 = load i32, ptr %3, align 4
  ret i32 %55
}