; Function Attrs: nounwind uwtable
define dso_local i32 @slurm_set_slurmd_debug_level(ptr noundef %0, i32 noundef %1) local_unnamed_addr #0 {
  %3 = alloca %struct.slurm_msg, align 8
  %4 = alloca %struct.slurm_msg, align 8
  %5 = alloca %struct.set_debug_level_msg, align 4
  call void @llvm.lifetime.start.p0(i64 424, ptr nonnull %3) #6
  call void @llvm.lifetime.start.p0(i64 424, ptr nonnull %4) #6
  call void @llvm.lifetime.start.p0(i64 4, ptr nonnull %5) #6
  call void @slurm_msg_t_init(ptr noundef nonnull %3) #6
  call void @slurm_msg_t_init(ptr noundef nonnull %4) #6
  %6 = load i32, ptr getelementptr inbounds nuw (i8, ptr @slurm_conf, i64 1168), align 8
  call void @slurm_msg_set_r_uid(ptr noundef nonnull %3, i32 noundef %6) #6
  store i32 %1, ptr %5, align 4
  %7 = getelementptr inbounds nuw i8, ptr %3, i64 212
  store i16 1010, ptr %7, align 4
  %8 = getelementptr inbounds nuw i8, ptr %3, i64 200
  store ptr %5, ptr %8, align 8
  %9 = call ptr @slurm_send_recv_msgs(ptr noundef %0, ptr noundef nonnull %3, i32 noundef 0) #6
  %.not = icmp eq ptr %9, null
  br i1 %.not, label %21, label %10

10:                                               ; preds = %2
  %11 = call ptr @list_iterator_create(ptr noundef nonnull %9) #6
  br label %12

12:                                               ; preds = %14, %10
  %13 = call ptr @list_next(ptr noundef %11) #6
  %.not16 = icmp eq ptr %13, null
  br i1 %.not16, label %20, label %14

14:                                               ; preds = %12
  %15 = load i16, ptr %13, align 8
  %16 = zext i16 %15 to i32
  %17 = getelementptr inbounds nuw i8, ptr %13, i64 16
  %18 = load ptr, ptr %17, align 8
  %19 = call i32 @slurm_get_return_code(i32 noundef %16, ptr noundef %18) #6
  %.not17 = icmp eq i32 %19, 0
  br i1 %.not17, label %12, label %20, !llvm.loop !13

20:                                               ; preds = %14, %12
  %.1 = phi i32 [ %19, %14 ], [ 0, %12 ]
  call void @list_iterator_destroy(ptr noundef %11) #6
  call void @list_destroy(ptr noundef nonnull %9) #6
  br label %21

21:                                               ; preds = %2, %20
  %.011 = phi i32 [ %.1, %20 ], [ -1, %2 ]
  call void @llvm.lifetime.end.p0(i64 4, ptr nonnull %5) #6
  call void @llvm.lifetime.end.p0(i64 424, ptr nonnull %4) #6
  call void @llvm.lifetime.end.p0(i64 424, ptr nonnull %3) #6
  ret i32 %.011
}